target datalayout = "e-m:e-p270:32:32-p271:32:32-p272:64:64-i64:64-i128:128-f80:128-n8:16:32:64-S128"
target triple = "x86_64-pc-linux-gnu"

%struct.WebPBitstreamFeatures = type { i32, i32, i32, i32, i32, [5 x i32] }
%struct.WebPDecoderConfig = type { %struct.WebPBitstreamFeatures, %struct.WebPDecBuffer, %struct.WebPDecoderOptions }
%struct.WebPDecBuffer = type { i32, i32, i32, i32, %union.anon, [4 x i32], ptr }
%union.anon = type { %struct.WebPYUVABuffer }
%struct.WebPYUVABuffer = type { ptr, ptr, ptr, ptr, i32, i32, i32, i32, i64, i64, i64, i64 }
%struct.WebPDecoderOptions = type { i32, i32, i32, i32, i32, i32, i32, i32, i32, i32, i32, i32, i32, i32, [5 x i32] }

@stderr = external global ptr, align 8
@.str.4 = private unnamed_addr constant [30 x i8] c"Failed during WebPIDecode().\0A\00", align 1
@.str.16 = private unnamed_addr constant [148 x i8] c"Error! Decoding of an animated WebP file is not supported.\0A       Use webpmux to extract the individual frames or\0A       vwebp to view this image.\0A\00", align 1

; Function Attrs: nounwind uwtable
define internal void @PrintAnimationWarning(ptr noundef %0) #0 {
  %2 = alloca ptr, align 8
  store ptr %0, ptr %2, align 8, !tbaa !21
  %3 = load ptr, ptr %2, align 8, !tbaa !21
  %4 = getelementptr inbounds nuw %struct.WebPDecoderConfig, ptr %3, i32 0, i32 0
  %5 = getelementptr inbounds nuw %struct.WebPBitstreamFeatures, ptr %4, i32 0, i32 3
  %6 = load i32, ptr %5, align 4, !tbaa !23
  %7 = icmp ne i32 %6, 0
  br i1 %7, label %8, label %11

8:                                                ; preds = %1
  %9 = load ptr, ptr @stderr, align 8, !tbaa !11
  %10 = call i32 (ptr, ptr, ...) @fprintf(ptr noundef %9, ptr noundef @.str.16) #5
  br label %11

11:                                               ; preds = %8, %1
  ret void
}

; Function Attrs: nounwind uwtable
define hidden i32 @DecodeWebPIncremental(ptr noundef %0, i64 noundef %1, ptr noundef %2) #0 {
  %4 = alloca i32, align 4
  %5 = alloca ptr, align 8
  %6 = alloca i64, align 8
  %7 = alloca ptr, align 8
  %8 = alloca i32, align 4
  %9 = alloca i32, align 4
  %10 = alloca ptr, align 8
  store ptr %0, ptr %5, align 8, !tbaa !4
  store i64 %1, ptr %6, align 8, !tbaa !19
  store ptr %2, ptr %7, align 8, !tbaa !21
  call void @llvm.lifetime.start.p0(i64 4, ptr %8) #5
  store i32 0, ptr %8, align 4, !tbaa !9
  %11 = load ptr, ptr %7, align 8, !tbaa !21
  %12 = icmp eq ptr %11, null
  br i1 %12, label %13, label %14

13:                                               ; preds = %3
  store i32 2, ptr %4, align 4
  store i32 1, ptr %9, align 4
  br label %36

14:                                               ; preds = %3
  %15 = load ptr, ptr %7, align 8, !tbaa !21
  call void @PrintAnimationWarning(ptr noundef %15)
  call void @llvm.lifetime.start.p0(i64 8, ptr %10) #5
  %16 = load ptr, ptr %5, align 8, !tbaa !4
  %17 = load i64, ptr %6, align 8, !tbaa !19
  %18 = load ptr, ptr %7, align 8, !tbaa !21
  %19 = call ptr @WebPIDecode(ptr noundef %16, i64 noundef %17, ptr noundef %18)
  store ptr %19, ptr %10, align 8, !tbaa !28
  %20 = load ptr, ptr %10, align 8, !tbaa !28
  %21 = icmp eq ptr %20, null
  br i1 %21, label %22, label %25

22:                                               ; preds = %14
  %23 = load ptr, ptr @stderr, align 8, !tbaa !11
  %24 = call i32 (ptr, ptr, ...) @fprintf(ptr noundef %23, ptr noundef @.str.4) #5
  store i32 1, ptr %4, align 4
  store i32 1, ptr %9, align 4
  br label %32

25:                                               ; preds = %14
  %26 = load ptr, ptr %10, align 8, !tbaa !28
  %27 = load ptr, ptr %5, align 8, !tbaa !4
  %28 = load i64, ptr %6, align 8, !tbaa !19
  %29 = call i32 @WebPIUpdate(ptr noundef %26, ptr noundef %27, i64 noundef %28)
  store i32 %29, ptr %8, align 4, !tbaa !9
  %30 = load ptr, ptr %10, align 8, !tbaa !28
  call void @WebPIDelete(ptr noundef %30)
  br label %31

31:                                               ; preds = %25
  store i32 0, ptr %9, align 4
  br label %32

32:                                               ; preds = %31, %22
  call void @llvm.lifetime.end.p0(i64 8, ptr %10) #5
  %33 = load i32, ptr %9, align 4
  switch i32 %33, label %36 [
    i32 0, label %34
  ]

34:                                               ; preds = %32
  %35 = load i32, ptr %8, align 4, !tbaa !9
  store i32 %35, ptr %4, align 4
  store i32 1, ptr %9, align 4
  br label %36

36:                                               ; preds = %34, %32, %13
  call void @llvm.lifetime.end.p0(i64 4, ptr %8) #5
  %37 = load i32, ptr %4, align 4
  ret i32 %37
}