; Function Attrs: nounwind uwtable
define hidden i32 @DecodeWebPIncremental(ptr noundef %0, i64 noundef %1, ptr noundef %2) local_unnamed_addr #2 {
  %4 = icmp eq ptr %2, null
  br i1 %4, label %16, label %5

5:                                                ; preds = %3
  %6 = getelementptr i8, ptr %2, i64 12
  %.val = load i32, ptr %6, align 4, !tbaa !13
  %.not.i = icmp eq i32 %.val, 0
  br i1 %.not.i, label %PrintAnimationWarning.exit, label %7

7:                                                ; preds = %5
  %8 = load ptr, ptr @stderr, align 8, !tbaa !4
  %9 = tail call i64 @fwrite(ptr nonnull @.str.16, i64 147, i64 1, ptr %8) #8
  br label %PrintAnimationWarning.exit

PrintAnimationWarning.exit:                       ; preds = %5, %7
  %10 = tail call ptr @WebPIDecode(ptr noundef %0, i64 noundef %1, ptr noundef nonnull %2) #7
  %.not = icmp eq ptr %10, null
  br i1 %.not, label %11, label %14

11:                                               ; preds = %PrintAnimationWarning.exit
  %12 = load ptr, ptr @stderr, align 8, !tbaa !4
  %13 = tail call i64 @fwrite(ptr nonnull @.str.4, i64 29, i64 1, ptr %12) #8
  br label %16

14:                                               ; preds = %PrintAnimationWarning.exit
  %15 = tail call i32 @WebPIUpdate(ptr noundef nonnull %10, ptr noundef %0, i64 noundef %1) #7
  tail call void @WebPIDelete(ptr noundef nonnull %10) #7
  br label %16

16:                                               ; preds = %11, %14, %3
  %.0 = phi i32 [ 2, %3 ], [ 1, %11 ], [ %15, %14 ]
  ret i32 %.0
}